target datalayout = "e-m:e-p270:32:32-p271:32:32-p272:64:64-i64:64-i128:128-f80:128-n8:16:32:64-S128"
target triple = "x86_64-pc-linux-gnu"

%struct.ObjectAddress = type { i32, i32, i32 }
%struct.RefreshMatViewStmt = type { i32, i8, i8, ptr }

; Function Attrs: nounwind uwtable
define dso_local { i64, i32 } @ExecRefreshMatView(ptr noundef %0, ptr noundef %1, ptr noundef %2) #0 {
  %4 = alloca %struct.ObjectAddress, align 4
  %5 = alloca ptr, align 8
  %6 = alloca ptr, align 8
  %7 = alloca ptr, align 8
  %8 = alloca i32, align 4
  %9 = alloca i32, align 4
  %10 = alloca { i64, i32 }, align 8
  %11 = alloca { i64, i32 }, align 8
  store ptr %0, ptr %5, align 8
  store ptr %1, ptr %6, align 8
  store ptr %2, ptr %7, align 8
  call void @llvm.lifetime.start.p0(i64 4, ptr %8) #10
  call void @llvm.lifetime.start.p0(i64 4, ptr %9) #10
  %12 = load ptr, ptr %5, align 8
  %13 = getelementptr inbounds nuw %struct.RefreshMatViewStmt, ptr %12, i32 0, i32 1
  %14 = load i8, ptr %13, align 4, !range !4, !noundef !5
  %15 = trunc i8 %14 to i1
  %16 = select i1 %15, i32 7, i32 8
  store i32 %16, ptr %9, align 4
  %17 = load ptr, ptr %5, align 8
  %18 = getelementptr inbounds nuw %struct.RefreshMatViewStmt, ptr %17, i32 0, i32 3
  %19 = load ptr, ptr %18, align 8
  %20 = load i32, ptr %9, align 4
  %21 = call i32 @RangeVarGetRelidExtended(ptr noundef %19, i32 noundef %20, i32 noundef 0, ptr noundef @RangeVarCallbackMaintainsTable, ptr noundef null)
  store i32 %21, ptr %8, align 4
  %22 = load i32, ptr %8, align 4
  %23 = load ptr, ptr %5, align 8
  %24 = getelementptr inbounds nuw %struct.RefreshMatViewStmt, ptr %23, i32 0, i32 2
  %25 = load i8, ptr %24, align 1, !range !4, !noundef !5
  %26 = trunc i8 %25 to i1
  %27 = load ptr, ptr %5, align 8
  %28 = getelementptr inbounds nuw %struct.RefreshMatViewStmt, ptr %27, i32 0, i32 1
  %29 = load i8, ptr %28, align 4, !range !4, !noundef !5
  %30 = trunc i8 %29 to i1
  %31 = load ptr, ptr %6, align 8
  %32 = load ptr, ptr %7, align 8
  %33 = call { i64, i32 } @RefreshMatViewByOid(i32 noundef %22, i1 noundef zeroext false, i1 noundef zeroext %26, i1 noundef zeroext %30, ptr noundef %31, ptr noundef %32)
  store { i64, i32 } %33, ptr %10, align 8
  call void @llvm.memcpy.p0.p0.i64(ptr align 4 %4, ptr align 8 %10, i64 12, i1 false)
  call void @llvm.lifetime.end.p0(i64 4, ptr %9) #10
  call void @llvm.lifetime.end.p0(i64 4, ptr %8) #10
  call void @llvm.memcpy.p0.p0.i64(ptr align 8 %11, ptr align 4 %4, i64 12, i1 false)
  %34 = load { i64, i32 }, ptr %11, align 8
  ret { i64, i32 } %34
}