; Function Attrs: nounwind uwtable
define dso_local { i64, i32 } @ExecRefreshMatView(ptr noundef readonly captures(none) %0, ptr noundef %1, ptr noundef captures(address_is_null) %2) local_unnamed_addr #0 {
  %4 = getelementptr inbounds nuw i8, ptr %0, i64 4
  %5 = load i8, ptr %4, align 4, !range !4, !noundef !5
  %6 = trunc nuw i8 %5 to i1
  %7 = select i1 %6, i32 7, i32 8
  %8 = getelementptr inbounds nuw i8, ptr %0, i64 8
  %9 = load ptr, ptr %8, align 8
  %10 = tail call i32 @RangeVarGetRelidExtended(ptr noundef %9, i32 noundef %7, i32 noundef 0, ptr noundef nonnull @RangeVarCallbackMaintainsTable, ptr noundef null) #8
  %11 = getelementptr inbounds nuw i8, ptr %0, i64 5
  %12 = load i8, ptr %11, align 1, !range !4, !noundef !5
  %13 = trunc nuw i8 %12 to i1
  %14 = load i8, ptr %4, align 4, !range !4, !noundef !5
  %15 = trunc nuw i8 %14 to i1
  %16 = tail call { i64, i32 } @RefreshMatViewByOid(i32 noundef %10, i1 noundef zeroext false, i1 noundef zeroext %13, i1 noundef zeroext %15, ptr noundef %1, ptr noundef %2)
  ret { i64, i32 } %16
}